; Function Attrs: nounwind uwtable
define void @lv_textarea_clear_selection(ptr noundef readonly captures(address_is_null) %0) local_unnamed_addr #0 {
  %.not = icmp eq ptr %0, null
  br i1 %.not, label %.preheader, label %2

.preheader:                                       ; preds = %1, %.preheader
  br label %.preheader

2:                                                ; preds = %1
  %3 = getelementptr inbounds nuw i8, ptr %0, i64 64
  %4 = load ptr, ptr %3, align 8, !tbaa !22
  %5 = tail call i32 @lv_label_get_text_selection_start(ptr noundef %4) #10
  %.not6 = icmp eq i32 %5, 65535
  br i1 %.not6, label %6, label %9

6:                                                ; preds = %2
  %7 = load ptr, ptr %3, align 8, !tbaa !22
  %8 = tail call i32 @lv_label_get_text_selection_end(ptr noundef %7) #10
  %.not7 = icmp eq i32 %8, 65535
  br i1 %.not7, label %12, label %9

9:                                                ; preds = %6, %2
  %10 = load ptr, ptr %3, align 8, !tbaa !22
  tail call void @lv_label_set_text_selection_start(ptr noundef %10, i32 noundef 65535) #10
  %11 = load ptr, ptr %3, align 8, !tbaa !22
  tail call void @lv_label_set_text_selection_end(ptr noundef %11, i32 noundef 65535) #10
  br label %12

12:                                               ; preds = %9, %6
  ret void
}